target datalayout = "e-m:e-p270:32:32-p271:32:32-p272:64:64-i64:64-i128:128-f80:128-n8:16:32:64-S128"
target triple = "x86_64-pc-linux-gnu"

%struct._zval_struct = type { %union._zend_value, %union.anon, %union.anon.3 }
%union._zend_value = type { i64 }
%union.anon = type { i32 }
%union.anon.3 = type { i32 }

; Function Attrs: nounwind uwtable
define internal i32 @ct_eval_array_key_exists(ptr noundef %0, ptr noundef %1, ptr noundef %2) #0 {
  %4 = alloca ptr, align 8
  %5 = alloca ptr, align 8
  %6 = alloca ptr, align 8
  %7 = alloca ptr, align 8
  %8 = alloca ptr, align 8
  %9 = alloca ptr, align 8
  %10 = alloca ptr, align 8
  %11 = alloca i32, align 4
  %12 = alloca ptr, align 8
  %13 = alloca ptr, align 8
  %14 = alloca ptr, align 8
  %15 = alloca ptr, align 8
  store ptr %0, ptr %12, align 8
  store ptr %1, ptr %13, align 8
  store ptr %2, ptr %14, align 8
  %16 = load ptr, ptr %14, align 8
  store ptr %16, ptr %4, align 8
  %17 = load ptr, ptr %4, align 8
  %18 = getelementptr inbounds %struct._zval_struct, ptr %17, i32 0, i32 1
  %19 = load i8, ptr %18, align 8
  %20 = zext i8 %19 to i32
  %21 = icmp ne i32 %20, 7
  br i1 %21, label %22, label %30

22:                                               ; preds = %3
  %23 = load ptr, ptr %14, align 8
  store ptr %23, ptr %5, align 8
  %24 = load ptr, ptr %5, align 8
  %25 = getelementptr inbounds %struct._zval_struct, ptr %24, i32 0, i32 1
  %26 = load i8, ptr %25, align 8
  %27 = zext i8 %26 to i32
  %28 = icmp eq i32 %27, 253
  br i1 %28, label %30, label %29

29:                                               ; preds = %22
  store i32 -1, ptr %11, align 4
  br label %84

30:                                               ; preds = %22, %3
  %31 = load ptr, ptr %13, align 8
  store ptr %31, ptr %6, align 8
  %32 = load ptr, ptr %6, align 8
  %33 = getelementptr inbounds %struct._zval_struct, ptr %32, i32 0, i32 1
  %34 = load i8, ptr %33, align 8
  %35 = zext i8 %34 to i32
  %36 = icmp ne i32 %35, 6
  br i1 %36, label %37, label %52

37:                                               ; preds = %30
  %38 = load ptr, ptr %13, align 8
  store ptr %38, ptr %7, align 8
  %39 = load ptr, ptr %7, align 8
  %40 = getelementptr inbounds %struct._zval_struct, ptr %39, i32 0, i32 1
  %41 = load i8, ptr %40, align 8
  %42 = zext i8 %41 to i32
  %43 = icmp ne i32 %42, 4
  br i1 %43, label %44, label %52

44:                                               ; preds = %37
  %45 = load ptr, ptr %13, align 8
  store ptr %45, ptr %8, align 8
  %46 = load ptr, ptr %8, align 8
  %47 = getelementptr inbounds %struct._zval_struct, ptr %46, i32 0, i32 1
  %48 = load i8, ptr %47, align 8
  %49 = zext i8 %48 to i32
  %50 = icmp ne i32 %49, 1
  br i1 %50, label %51, label %52

51:                                               ; preds = %44
  store i32 -1, ptr %11, align 4
  br label %84

52:                                               ; preds = %44, %37, %30
  %53 = load ptr, ptr %14, align 8
  %54 = load ptr, ptr %13, align 8
  %55 = call i32 @fetch_array_elem(ptr noundef %15, ptr noundef %53, ptr noundef %54)
  %56 = icmp eq i32 %55, -1
  br i1 %56, label %57, label %58

57:                                               ; preds = %52
  store i32 -1, ptr %11, align 4
  br label %84

58:                                               ; preds = %52
  %59 = load ptr, ptr %14, align 8
  store ptr %59, ptr %9, align 8
  %60 = load ptr, ptr %9, align 8
  %61 = getelementptr inbounds %struct._zval_struct, ptr %60, i32 0, i32 1
  %62 = load i8, ptr %61, align 8
  %63 = zext i8 %62 to i32
  %64 = icmp eq i32 %63, 253
  br i1 %64, label %65, label %76

65:                                               ; preds = %58
  %66 = load ptr, ptr %15, align 8
  %67 = icmp ne ptr %66, null
  br i1 %67, label %68, label %75

68:                                               ; preds = %65
  %69 = load ptr, ptr %15, align 8
  store ptr %69, ptr %10, align 8
  %70 = load ptr, ptr %10, align 8
  %71 = getelementptr inbounds %struct._zval_struct, ptr %70, i32 0, i32 1
  %72 = load i8, ptr %71, align 8
  %73 = zext i8 %72 to i32
  %74 = icmp eq i32 %73, 254
  br i1 %74, label %75, label %76

75:                                               ; preds = %68, %65
  store i32 -1, ptr %11, align 4
  br label %84

76:                                               ; preds = %68, %58
  br label %77

77:                                               ; preds = %76
  %78 = load ptr, ptr %15, align 8
  %79 = icmp ne ptr %78, null
  %80 = select i1 %79, i32 3, i32 2
  %81 = load ptr, ptr %12, align 8
  %82 = getelementptr inbounds %struct._zval_struct, ptr %81, i32 0, i32 1
  store i32 %80, ptr %82, align 8
  br label %83

83:                                               ; preds = %77
  store i32 0, ptr %11, align 4
  br label %84

84:                                               ; preds = %83, %75, %57, %51, %29
  %85 = load i32, ptr %11, align 4
  ret i32 %85
}