; Function Attrs: nounwind uwtable
define internal fastcc noundef i32 @ct_eval_array_key_exists(ptr nocapture noundef writeonly %0, ptr nocapture noundef readonly %1, ptr nocapture noundef readonly %2) unnamed_addr #0 {
  %4 = alloca ptr, align 8
  %5 = getelementptr inbounds i8, ptr %2, i64 8
  %6 = load i8, ptr %5, align 8
  switch i8 %6, label %24 [
    i8 7, label %7
    i8 -3, label %7
  ]

7:                                                ; preds = %3, %3
  %8 = getelementptr inbounds i8, ptr %1, i64 8
  %9 = load i8, ptr %8, align 8
  switch i8 %9, label %24 [
    i8 6, label %10
    i8 4, label %10
    i8 1, label %10
  ]

10:                                               ; preds = %7, %7, %7
  %11 = call fastcc i32 @fetch_array_elem(ptr noundef nonnull %4, ptr noundef nonnull %2, ptr noundef nonnull %1), !range !5
  %12 = icmp eq i32 %11, -1
  br i1 %12, label %24, label %13

13:                                               ; preds = %10
  %14 = load i8, ptr %5, align 8
  %15 = icmp eq i8 %14, -3
  %.pre = load ptr, ptr %4, align 8
  br i1 %15, label %16, label %21

16:                                               ; preds = %13
  %.not22 = icmp eq ptr %.pre, null
  br i1 %.not22, label %24, label %17

17:                                               ; preds = %16
  %18 = getelementptr inbounds i8, ptr %.pre, i64 8
  %19 = load i8, ptr %18, align 8
  %20 = icmp eq i8 %19, -2
  br i1 %20, label %24, label %21

21:                                               ; preds = %13, %17
  %.not23 = icmp eq ptr %.pre, null
  %22 = select i1 %.not23, i32 2, i32 3
  %23 = getelementptr inbounds i8, ptr %0, i64 8
  store i32 %22, ptr %23, align 8
  br label %24

24:                                               ; preds = %16, %17, %10, %7, %3, %21
  %.0 = phi i32 [ 0, %21 ], [ -1, %3 ], [ -1, %7 ], [ -1, %10 ], [ -1, %17 ], [ -1, %16 ]
  ret i32 %.0
}